target datalayout = "e-m:e-p270:32:32-p271:32:32-p272:64:64-i64:64-i128:128-f80:128-n8:16:32:64-S128"
target triple = "x86_64-pc-linux-gnu"

%struct.pmix_class_t = type { ptr, ptr, ptr, ptr, i32, i32, ptr, ptr, i64 }
%struct.pmix_tma = type { ptr, ptr, ptr, ptr, ptr, ptr, ptr, ptr }
%union.pthread_mutex_t = type { %struct.__pthread_mutex_s }
%struct.__pthread_mutex_s = type { i32, i32, i32, i32, i32, i16, i16, %struct.__pthread_internal_list }
%struct.__pthread_internal_list = type { ptr, ptr }
%union.pthread_cond_t = type { %struct.__pthread_cond_s }
%struct.__pthread_cond_s = type { %union.__atomic_wide_counter, %union.__atomic_wide_counter, [2 x i32], [2 x i32], i32, i32, [2 x i32] }
%union.__atomic_wide_counter = type { i64 }
%struct.pmix_object_t = type { %union.pthread_mutex_t, ptr, i32, %struct.pmix_tma }
%struct.timeval = type { i64, i64 }
%struct.pmix_name_t = type { ptr, i32 }
%struct.event = type { %struct.event_callback, %union.anon.3, i32, ptr, %union.anon.5, i16, i16, %struct.timeval }
%struct.event_callback = type { %struct.anon.1, i16, i8, i8, %union.anon.2, ptr }
%struct.anon.1 = type { ptr, ptr }
%union.anon.2 = type { ptr }
%union.anon.3 = type { %struct.anon.4 }
%struct.anon.4 = type { ptr, ptr }
%union.anon.5 = type { %struct.anon.6 }
%struct.anon.6 = type { %struct.anon.7, %struct.timeval }
%struct.anon.7 = type { ptr, ptr }
%struct.pmix_shift_caddy_t = type { %struct.pmix_object_t, %struct.event, %struct.pmix_lock_t, i32, ptr, i64, i32, %struct.pmix_name_t, ptr, ptr, ptr, i64, ptr, ptr, i64, ptr, i64, ptr, ptr, ptr, ptr, ptr, ptr, i8, %union.anon.10, ptr, i64 }
%struct.pmix_lock_t = type { i32, %struct.pmix_mutex_t, %union.pthread_cond_t, i8 }
%struct.pmix_mutex_t = type { %struct.pmix_object_t, %union.pthread_mutex_t }
%union.anon.10 = type { ptr }

@.str.25 = private unnamed_addr constant [21 x i8] c"pthread_mutex_lock()\00", align 1

; Function Attrs: inlinehint nounwind uwtable
define internal void @pmix_tma_free(ptr noundef %0, ptr noundef %1) #2 {
  %3 = alloca ptr, align 8
  %4 = alloca ptr, align 8
  store ptr %0, ptr %3, align 8, !tbaa !58
  store ptr %1, ptr %4, align 8, !tbaa !3
  %5 = load ptr, ptr %3, align 8, !tbaa !58
  %6 = icmp ne ptr null, %5
  br i1 %6, label %7, label %13

7:                                                ; preds = %2
  %8 = load ptr, ptr %3, align 8, !tbaa !58
  %9 = getelementptr inbounds nuw %struct.pmix_tma, ptr %8, i32 0, i32 5
  %10 = load ptr, ptr %9, align 8, !tbaa !254
  %11 = load ptr, ptr %3, align 8, !tbaa !58
  %12 = load ptr, ptr %4, align 8, !tbaa !3
  call void %10(ptr noundef %11, ptr noundef %12)
  br label %15

13:                                               ; preds = %2
  %14 = load ptr, ptr %4, align 8, !tbaa !3
  call void @free(ptr noundef %14) #13
  br label %15

15:                                               ; preds = %13, %7
  ret void
}

; Function Attrs: alwaysinline nounwind uwtable
define internal i32 @pmix_obj_update(ptr noundef %0, i32 noundef %1) #7 {
  %3 = alloca ptr, align 8
  %4 = alloca i32, align 4
  %5 = alloca i32, align 4
  store ptr %0, ptr %3, align 8, !tbaa !20
  store i32 %1, ptr %4, align 4, !tbaa !7
  call void @llvm.lifetime.start.p0(i64 4, ptr %5) #13
  %6 = load ptr, ptr %3, align 8, !tbaa !20
  %7 = getelementptr inbounds nuw %struct.pmix_object_t, ptr %6, i32 0, i32 0
  %8 = call i32 @pthread_mutex_lock(ptr noundef %7) #13
  store i32 %8, ptr %5, align 4, !tbaa !7
  %9 = load i32, ptr %5, align 4, !tbaa !7
  %10 = icmp eq i32 %9, 35
  br i1 %10, label %11, label %14

11:                                               ; preds = %2
  %12 = load i32, ptr %5, align 4, !tbaa !7
  %13 = call ptr @__errno_location() #15
  store i32 %12, ptr %13, align 4, !tbaa !7
  call void @perror(ptr noundef @.str.25)
  call void @abort() #16
  unreachable

14:                                               ; preds = %2
  %15 = load i32, ptr %4, align 4, !tbaa !7
  %16 = load ptr, ptr %3, align 8, !tbaa !20
  %17 = getelementptr inbounds nuw %struct.pmix_object_t, ptr %16, i32 0, i32 2
  %18 = load i32, ptr %17, align 8, !tbaa !17
  %19 = add nsw i32 %18, %15
  store i32 %19, ptr %17, align 8, !tbaa !17
  store i32 %19, ptr %5, align 4, !tbaa !7
  %20 = load ptr, ptr %3, align 8, !tbaa !20
  %21 = getelementptr inbounds nuw %struct.pmix_object_t, ptr %20, i32 0, i32 0
  %22 = call i32 @pthread_mutex_unlock(ptr noundef %21) #13
  %23 = load i32, ptr %5, align 4, !tbaa !7
  call void @llvm.lifetime.end.p0(i64 4, ptr %5) #13
  ret i32 %23
}

; Function Attrs: inlinehint nounwind uwtable
define internal void @pmix_obj_run_destructors(ptr noundef %0) #2 {
  %2 = alloca ptr, align 8
  %3 = alloca ptr, align 8
  store ptr %0, ptr %2, align 8, !tbaa !20
  call void @llvm.lifetime.start.p0(i64 8, ptr %3) #13
  %4 = load ptr, ptr %2, align 8, !tbaa !20
  %5 = getelementptr inbounds nuw %struct.pmix_object_t, ptr %4, i32 0, i32 1
  %6 = load ptr, ptr %5, align 8, !tbaa !14
  %7 = getelementptr inbounds nuw %struct.pmix_class_t, ptr %6, i32 0, i32 7
  %8 = load ptr, ptr %7, align 8, !tbaa !283
  store ptr %8, ptr %3, align 8, !tbaa !3
  br label %9

9:                                                ; preds = %13, %1
  %10 = load ptr, ptr %3, align 8, !tbaa !3
  %11 = load ptr, ptr %10, align 8, !tbaa !3
  %12 = icmp ne ptr null, %11
  br i1 %12, label %13, label %19

13:                                               ; preds = %9
  %14 = load ptr, ptr %3, align 8, !tbaa !3
  %15 = load ptr, ptr %14, align 8, !tbaa !3
  %16 = load ptr, ptr %2, align 8, !tbaa !20
  call void %15(ptr noundef %16)
  %17 = load ptr, ptr %3, align 8, !tbaa !3
  %18 = getelementptr inbounds nuw ptr, ptr %17, i32 1
  store ptr %18, ptr %3, align 8, !tbaa !3
  br label %9, !llvm.loop !284

19:                                               ; preds = %9
  call void @llvm.lifetime.end.p0(i64 8, ptr %3) #13
  ret void
}

; Function Attrs: nounwind uwtable
define internal void @scdes(ptr noundef %0) #0 {
  %2 = alloca ptr, align 8
  %3 = alloca ptr, align 8
  %4 = alloca ptr, align 8
  store ptr %0, ptr %2, align 8, !tbaa !3
  br label %5

5:                                                ; preds = %1
  br label %6

6:                                                ; preds = %5
  %7 = load ptr, ptr %2, align 8, !tbaa !3
  %8 = getelementptr inbounds nuw %struct.pmix_shift_caddy_t, ptr %7, i32 0, i32 2
  %9 = getelementptr inbounds nuw %struct.pmix_lock_t, ptr %8, i32 0, i32 1
  call void @pmix_obj_run_destructors(ptr noundef %9)
  br label %10

10:                                               ; preds = %6
  %11 = load ptr, ptr %2, align 8, !tbaa !3
  %12 = getelementptr inbounds nuw %struct.pmix_shift_caddy_t, ptr %11, i32 0, i32 2
  %13 = getelementptr inbounds nuw %struct.pmix_lock_t, ptr %12, i32 0, i32 2
  %14 = call i32 @pthread_cond_destroy(ptr noundef %13) #13
  br label %15

15:                                               ; preds = %10
  %16 = load ptr, ptr %2, align 8, !tbaa !3
  %17 = getelementptr inbounds nuw %struct.pmix_shift_caddy_t, ptr %16, i32 0, i32 9
  %18 = load ptr, ptr %17, align 8, !tbaa !141
  %19 = icmp ne ptr null, %18
  br i1 %19, label %20, label %50

20:                                               ; preds = %15
  br label %21

21:                                               ; preds = %20
  call void @llvm.lifetime.start.p0(i64 8, ptr %3) #13
  %22 = load ptr, ptr %2, align 8, !tbaa !3
  %23 = getelementptr inbounds nuw %struct.pmix_shift_caddy_t, ptr %22, i32 0, i32 9
  %24 = load ptr, ptr %23, align 8, !tbaa !141
  store ptr %24, ptr %3, align 8, !tbaa !20
  %25 = load ptr, ptr %3, align 8, !tbaa !20
  %26 = call i32 @pmix_obj_update(ptr noundef %25, i32 noundef -1)
  %27 = icmp eq i32 0, %26
  br i1 %27, label %28, label %48

28:                                               ; preds = %21
  %29 = load ptr, ptr %3, align 8, !tbaa !20
  call void @pmix_obj_run_destructors(ptr noundef %29)
  %30 = load ptr, ptr %3, align 8, !tbaa !20
  %31 = getelementptr inbounds nuw %struct.pmix_object_t, ptr %30, i32 0, i32 3
  %32 = getelementptr inbounds nuw %struct.pmix_tma, ptr %31, i32 0, i32 5
  %33 = load ptr, ptr %32, align 8, !tbaa !22
  %34 = icmp ne ptr null, %33
  br i1 %34, label %35, label %41

35:                                               ; preds = %28
  %36 = load ptr, ptr %3, align 8, !tbaa !20
  %37 = getelementptr inbounds nuw %struct.pmix_object_t, ptr %36, i32 0, i32 3
  %38 = load ptr, ptr %2, align 8, !tbaa !3
  %39 = getelementptr inbounds nuw %struct.pmix_shift_caddy_t, ptr %38, i32 0, i32 9
  %40 = load ptr, ptr %39, align 8, !tbaa !141
  call void @pmix_tma_free(ptr noundef %37, ptr noundef %40)
  br label %45

41:                                               ; preds = %28
  %42 = load ptr, ptr %2, align 8, !tbaa !3
  %43 = getelementptr inbounds nuw %struct.pmix_shift_caddy_t, ptr %42, i32 0, i32 9
  %44 = load ptr, ptr %43, align 8, !tbaa !141
  call void @free(ptr noundef %44) #13
  br label %45

45:                                               ; preds = %41, %35
  %46 = load ptr, ptr %2, align 8, !tbaa !3
  %47 = getelementptr inbounds nuw %struct.pmix_shift_caddy_t, ptr %46, i32 0, i32 9
  store ptr null, ptr %47, align 8, !tbaa !141
  br label %48

48:                                               ; preds = %45, %21
  call void @llvm.lifetime.end.p0(i64 8, ptr %3) #13
  br label %49

49:                                               ; preds = %48
  br label %50

50:                                               ; preds = %49, %15
  %51 = load ptr, ptr %2, align 8, !tbaa !3
  %52 = getelementptr inbounds nuw %struct.pmix_shift_caddy_t, ptr %51, i32 0, i32 7
  %53 = getelementptr inbounds nuw %struct.pmix_name_t, ptr %52, i32 0, i32 0
  %54 = load ptr, ptr %53, align 8, !tbaa !143
  %55 = icmp ne ptr null, %54
  br i1 %55, label %56, label %61

56:                                               ; preds = %50
  %57 = load ptr, ptr %2, align 8, !tbaa !3
  %58 = getelementptr inbounds nuw %struct.pmix_shift_caddy_t, ptr %57, i32 0, i32 7
  %59 = getelementptr inbounds nuw %struct.pmix_name_t, ptr %58, i32 0, i32 0
  %60 = load ptr, ptr %59, align 8, !tbaa !143
  call void @free(ptr noundef %60) #13
  br label %61

61:                                               ; preds = %56, %50
  %62 = load ptr, ptr %2, align 8, !tbaa !3
  %63 = getelementptr inbounds nuw %struct.pmix_shift_caddy_t, ptr %62, i32 0, i32 19
  %64 = load ptr, ptr %63, align 8, !tbaa !154
  %65 = icmp ne ptr null, %64
  br i1 %65, label %66, label %96

66:                                               ; preds = %61
  br label %67

67:                                               ; preds = %66
  call void @llvm.lifetime.start.p0(i64 8, ptr %4) #13
  %68 = load ptr, ptr %2, align 8, !tbaa !3
  %69 = getelementptr inbounds nuw %struct.pmix_shift_caddy_t, ptr %68, i32 0, i32 19
  %70 = load ptr, ptr %69, align 8, !tbaa !154
  store ptr %70, ptr %4, align 8, !tbaa !20
  %71 = load ptr, ptr %4, align 8, !tbaa !20
  %72 = call i32 @pmix_obj_update(ptr noundef %71, i32 noundef -1)
  %73 = icmp eq i32 0, %72
  br i1 %73, label %74, label %94

74:                                               ; preds = %67
  %75 = load ptr, ptr %4, align 8, !tbaa !20
  call void @pmix_obj_run_destructors(ptr noundef %75)
  %76 = load ptr, ptr %4, align 8, !tbaa !20
  %77 = getelementptr inbounds nuw %struct.pmix_object_t, ptr %76, i32 0, i32 3
  %78 = getelementptr inbounds nuw %struct.pmix_tma, ptr %77, i32 0, i32 5
  %79 = load ptr, ptr %78, align 8, !tbaa !22
  %80 = icmp ne ptr null, %79
  br i1 %80, label %81, label %87

81:                                               ; preds = %74
  %82 = load ptr, ptr %4, align 8, !tbaa !20
  %83 = getelementptr inbounds nuw %struct.pmix_object_t, ptr %82, i32 0, i32 3
  %84 = load ptr, ptr %2, align 8, !tbaa !3
  %85 = getelementptr inbounds nuw %struct.pmix_shift_caddy_t, ptr %84, i32 0, i32 19
  %86 = load ptr, ptr %85, align 8, !tbaa !154
  call void @pmix_tma_free(ptr noundef %83, ptr noundef %86)
  br label %91

87:                                               ; preds = %74
  %88 = load ptr, ptr %2, align 8, !tbaa !3
  %89 = getelementptr inbounds nuw %struct.pmix_shift_caddy_t, ptr %88, i32 0, i32 19
  %90 = load ptr, ptr %89, align 8, !tbaa !154
  call void @free(ptr noundef %90) #13
  br label %91

91:                                               ; preds = %87, %81
  %92 = load ptr, ptr %2, align 8, !tbaa !3
  %93 = getelementptr inbounds nuw %struct.pmix_shift_caddy_t, ptr %92, i32 0, i32 19
  store ptr null, ptr %93, align 8, !tbaa !154
  br label %94

94:                                               ; preds = %91, %67
  call void @llvm.lifetime.end.p0(i64 8, ptr %4) #13
  br label %95

95:                                               ; preds = %94
  br label %96

96:                                               ; preds = %95, %61
  ret void
}