; Function Attrs: nounwind uwtable
define internal void @scdes(ptr noundef %0) #0 {
  %2 = getelementptr inbounds nuw i8, ptr %0, i64 256
  %3 = getelementptr inbounds nuw i8, ptr %0, i64 296
  %4 = load ptr, ptr %3, align 8, !tbaa !13
  %5 = getelementptr inbounds nuw i8, ptr %4, i64 48
  %6 = load ptr, ptr %5, align 8, !tbaa !28
  %7 = load ptr, ptr %6, align 8, !tbaa !18
  %.not6.i = icmp eq ptr %7, null
  br i1 %.not6.i, label %pmix_obj_run_destructors.exit, label %.lr.ph.i

.lr.ph.i:                                         ; preds = %1, %.lr.ph.i
  %8 = phi ptr [ %10, %.lr.ph.i ], [ %7, %1 ]
  %.07.i = phi ptr [ %9, %.lr.ph.i ], [ %6, %1 ]
  tail call void %8(ptr noundef nonnull %2) #15
  %9 = getelementptr inbounds nuw i8, ptr %.07.i, i64 8
  %10 = load ptr, ptr %9, align 8, !tbaa !18
  %.not.i = icmp eq ptr %10, null
  br i1 %.not.i, label %pmix_obj_run_destructors.exit, label %.lr.ph.i, !llvm.loop !29

pmix_obj_run_destructors.exit:                    ; preds = %.lr.ph.i, %1
  %11 = getelementptr inbounds nuw i8, ptr %0, i64 416
  %12 = tail call i32 @pthread_cond_destroy(ptr noundef nonnull %11) #15
  %13 = getelementptr inbounds nuw i8, ptr %0, i64 528
  %14 = load ptr, ptr %13, align 8, !tbaa !140
  %.not = icmp eq ptr %14, null
  br i1 %.not, label %42, label %15

15:                                               ; preds = %pmix_obj_run_destructors.exit
  %16 = tail call i32 @pthread_mutex_lock(ptr noundef nonnull %14) #15
  %17 = icmp eq i32 %16, 35
  br i1 %17, label %18, label %pmix_obj_update.exit

18:                                               ; preds = %15
  %19 = tail call ptr @__errno_location() #16
  store i32 35, ptr %19, align 4, !tbaa !3
  tail call void @perror(ptr noundef nonnull @.str.25) #17
  tail call void @abort() #18
  unreachable

pmix_obj_update.exit:                             ; preds = %15
  %20 = getelementptr inbounds nuw i8, ptr %14, i64 48
  %21 = load i32, ptr %20, align 8, !tbaa !16
  %22 = add nsw i32 %21, -1
  store i32 %22, ptr %20, align 8, !tbaa !16
  %23 = tail call i32 @pthread_mutex_unlock(ptr noundef nonnull %14) #15
  %24 = icmp eq i32 %22, 0
  br i1 %24, label %25, label %42

25:                                               ; preds = %pmix_obj_update.exit
  %26 = getelementptr inbounds nuw i8, ptr %14, i64 40
  %27 = load ptr, ptr %26, align 8, !tbaa !13
  %28 = getelementptr inbounds nuw i8, ptr %27, i64 48
  %29 = load ptr, ptr %28, align 8, !tbaa !28
  %30 = load ptr, ptr %29, align 8, !tbaa !18
  %.not6.i29 = icmp eq ptr %30, null
  br i1 %.not6.i29, label %pmix_obj_run_destructors.exit33, label %.lr.ph.i30

.lr.ph.i30:                                       ; preds = %25, %.lr.ph.i30
  %31 = phi ptr [ %33, %.lr.ph.i30 ], [ %30, %25 ]
  %.07.i31 = phi ptr [ %32, %.lr.ph.i30 ], [ %29, %25 ]
  tail call void %31(ptr noundef nonnull %14) #15
  %32 = getelementptr inbounds nuw i8, ptr %.07.i31, i64 8
  %33 = load ptr, ptr %32, align 8, !tbaa !18
  %.not.i32 = icmp eq ptr %33, null
  br i1 %.not.i32, label %pmix_obj_run_destructors.exit33, label %.lr.ph.i30, !llvm.loop !29

pmix_obj_run_destructors.exit33:                  ; preds = %.lr.ph.i30, %25
  %34 = getelementptr inbounds nuw i8, ptr %14, i64 96
  %35 = load ptr, ptr %34, align 8, !tbaa !30
  %.not24 = icmp eq ptr %35, null
  br i1 %.not24, label %39, label %36

36:                                               ; preds = %pmix_obj_run_destructors.exit33
  %37 = getelementptr inbounds nuw i8, ptr %14, i64 56
  %38 = load ptr, ptr %13, align 8, !tbaa !140
  tail call void %35(ptr noundef nonnull %37, ptr noundef %38) #15
  br label %41

39:                                               ; preds = %pmix_obj_run_destructors.exit33
  %40 = load ptr, ptr %13, align 8, !tbaa !140
  tail call void @free(ptr noundef %40) #15
  br label %41

41:                                               ; preds = %39, %36
  store ptr null, ptr %13, align 8, !tbaa !140
  br label %42

42:                                               ; preds = %pmix_obj_update.exit, %41, %pmix_obj_run_destructors.exit
  %43 = getelementptr inbounds nuw i8, ptr %0, i64 504
  %44 = load ptr, ptr %43, align 8, !tbaa !138
  %.not25 = icmp eq ptr %44, null
  br i1 %.not25, label %46, label %45

45:                                               ; preds = %42
  tail call void @free(ptr noundef nonnull %44) #15
  br label %46

46:                                               ; preds = %45, %42
  %47 = getelementptr inbounds nuw i8, ptr %0, i64 608
  %48 = load ptr, ptr %47, align 8, !tbaa !141
  %.not26 = icmp eq ptr %48, null
  br i1 %.not26, label %76, label %49

49:                                               ; preds = %46
  %50 = tail call i32 @pthread_mutex_lock(ptr noundef nonnull %48) #15
  %51 = icmp eq i32 %50, 35
  br i1 %51, label %52, label %pmix_obj_update.exit28

52:                                               ; preds = %49
  %53 = tail call ptr @__errno_location() #16
  store i32 35, ptr %53, align 4, !tbaa !3
  tail call void @perror(ptr noundef nonnull @.str.25) #17
  tail call void @abort() #18
  unreachable

pmix_obj_update.exit28:                           ; preds = %49
  %54 = getelementptr inbounds nuw i8, ptr %48, i64 48
  %55 = load i32, ptr %54, align 8, !tbaa !16
  %56 = add nsw i32 %55, -1
  store i32 %56, ptr %54, align 8, !tbaa !16
  %57 = tail call i32 @pthread_mutex_unlock(ptr noundef nonnull %48) #15
  %58 = icmp eq i32 %56, 0
  br i1 %58, label %59, label %76

59:                                               ; preds = %pmix_obj_update.exit28
  %60 = getelementptr inbounds nuw i8, ptr %48, i64 40
  %61 = load ptr, ptr %60, align 8, !tbaa !13
  %62 = getelementptr inbounds nuw i8, ptr %61, i64 48
  %63 = load ptr, ptr %62, align 8, !tbaa !28
  %64 = load ptr, ptr %63, align 8, !tbaa !18
  %.not6.i35 = icmp eq ptr %64, null
  br i1 %.not6.i35, label %pmix_obj_run_destructors.exit39, label %.lr.ph.i36

.lr.ph.i36:                                       ; preds = %59, %.lr.ph.i36
  %65 = phi ptr [ %67, %.lr.ph.i36 ], [ %64, %59 ]
  %.07.i37 = phi ptr [ %66, %.lr.ph.i36 ], [ %63, %59 ]
  tail call void %65(ptr noundef nonnull %48) #15
  %66 = getelementptr inbounds nuw i8, ptr %.07.i37, i64 8
  %67 = load ptr, ptr %66, align 8, !tbaa !18
  %.not.i38 = icmp eq ptr %67, null
  br i1 %.not.i38, label %pmix_obj_run_destructors.exit39, label %.lr.ph.i36, !llvm.loop !29

pmix_obj_run_destructors.exit39:                  ; preds = %.lr.ph.i36, %59
  %68 = getelementptr inbounds nuw i8, ptr %48, i64 96
  %69 = load ptr, ptr %68, align 8, !tbaa !30
  %.not27 = icmp eq ptr %69, null
  br i1 %.not27, label %73, label %70

70:                                               ; preds = %pmix_obj_run_destructors.exit39
  %71 = getelementptr inbounds nuw i8, ptr %48, i64 56
  %72 = load ptr, ptr %47, align 8, !tbaa !141
  tail call void %69(ptr noundef nonnull %71, ptr noundef %72) #15
  br label %75

73:                                               ; preds = %pmix_obj_run_destructors.exit39
  %74 = load ptr, ptr %47, align 8, !tbaa !141
  tail call void @free(ptr noundef %74) #15
  br label %75

75:                                               ; preds = %73, %70
  store ptr null, ptr %47, align 8, !tbaa !141
  br label %76

76:                                               ; preds = %pmix_obj_update.exit28, %75, %46
  ret void
}